; Function Attrs: mustprogress uwtable
define noundef zeroext i1 @_ZNK8facebook5velox10OpaqueTypeeqERKNS0_4TypeE(ptr noundef nonnull align 8 dereferenceable(32) %this, ptr noundef nonnull align 8 dereferenceable(17) %other) unnamed_addr #0 align 2 {
entry:
  %cmp = icmp eq ptr %other, %this
  br i1 %cmp, label %return, label %if.end

if.end:                                           ; preds = %entry
  %vtable = load ptr, ptr %this, align 8
  %vfn = getelementptr inbounds i8, ptr %vtable, i64 88
  %0 = load ptr, ptr %vfn, align 8
  %call = tail call noundef zeroext i1 %0(ptr noundef nonnull align 8 dereferenceable(32) %this, ptr noundef nonnull align 8 dereferenceable(17) %other)
  br i1 %call, label %if.end3, label %return

if.end3:                                          ; preds = %if.end
  %typeIndex_ = getelementptr inbounds i8, ptr %this, i64 24
  %typeIndex_4 = getelementptr inbounds i8, ptr %other, i64 24
  %1 = load ptr, ptr %typeIndex_, align 8
  %2 = load ptr, ptr %typeIndex_4, align 8
  %__name.i.i = getelementptr inbounds i8, ptr %1, i64 8
  %3 = load ptr, ptr %__name.i.i, align 8
  %__name2.i.i = getelementptr inbounds i8, ptr %2, i64 8
  %4 = load ptr, ptr %__name2.i.i, align 8
  %cmp.i.i = icmp eq ptr %3, %4
  br i1 %cmp.i.i, label %return, label %if.end.i.i

if.end.i.i:                                       ; preds = %if.end3
  %5 = load i8, ptr %3, align 1
  %cmp4.not.i.i = icmp eq i8 %5, 42
  br i1 %cmp4.not.i.i, label %return, label %land.rhs.i.i

land.rhs.i.i:                                     ; preds = %if.end.i.i
  %6 = load i8, ptr %4, align 1
  %cmp.i.i.i = icmp eq i8 %6, 42
  %cond.idx.i.i.i = zext i1 %cmp.i.i.i to i64
  %cond.i.i.i = getelementptr inbounds i8, ptr %4, i64 %cond.idx.i.i.i
  %call6.i.i = tail call i32 @strcmp(ptr noundef nonnull dereferenceable(1) %3, ptr noundef nonnull dereferenceable(1) %cond.i.i.i) #37
  %cmp7.i.i = icmp eq i32 %call6.i.i, 0
  br label %return

return:                                           ; preds = %land.rhs.i.i, %if.end.i.i, %if.end3, %if.end, %entry
  %retval.0 = phi i1 [ true, %entry ], [ false, %if.end ], [ true, %if.end3 ], [ false, %if.end.i.i ], [ %cmp7.i.i, %land.rhs.i.i ]
  ret i1 %retval.0
}